target datalayout = "e-m:e-p270:32:32-p271:32:32-p272:64:64-i64:64-i128:128-f80:128-n8:16:32:64-S128"
target triple = "x86_64-pc-linux-gnu"

%struct._zend_executor_globals = type { %struct._zval_struct, %struct._zval_struct, [32 x ptr], ptr, ptr, %struct._zend_array, %struct._zend_array, ptr, i32, i32, ptr, ptr, ptr, ptr, ptr, ptr, i64, ptr, ptr, i32, i32, i64, i32, i32, i32, i8, i8, %struct.zend_atomic_bool_s, %struct.zend_atomic_bool_s, ptr, i64, ptr, ptr, %struct._zend_array, %struct._zend_array, i32, i8, %struct._zval_struct, %struct._zval_struct, %struct._zend_stack, %struct._zend_stack, %struct._zend_stack, ptr, i32, i32, i64, ptr, ptr, ptr, %struct._zend_objects_store, ptr, ptr, ptr, [3 x %struct._zend_op], ptr, i8, i8, i64, i32, i32, ptr, [16 x %struct._HashTableIterator], ptr, %union._zend_function, %struct._zend_op, %struct._zend_array, i64, %struct.zend_get_gc_buffer, ptr, ptr, ptr, i64, i8, i32, ptr, ptr, i64, %struct._zend_call_stack, i64, i64, [6 x ptr] }
%struct.zend_atomic_bool_s = type { i8 }
%struct._zval_struct = type { %union._zend_value, %union.anon.3, %union.anon.6 }
%union._zend_value = type { i64 }
%union.anon.3 = type { i32 }
%union.anon.6 = type { i32 }
%struct._zend_stack = type { i32, i32, i32, ptr }
%struct._zend_objects_store = type { ptr, i32, i32, i32 }
%struct._HashTableIterator = type { ptr, i32, i32 }
%union._zend_function = type { %struct._zend_op_array }
%struct._zend_op_array = type { i8, [3 x i8], i32, ptr, ptr, ptr, i32, i32, ptr, ptr, ptr, ptr, i32, i32, i32, i32, ptr, ptr, ptr, ptr, ptr, i32, i32, ptr, ptr, ptr, i32, i32, i32, i32, ptr, ptr, [6 x ptr] }
%struct._zend_op = type { ptr, %union._znode_op, %union._znode_op, %union._znode_op, i32, i32, i8, i8, i8, i8 }
%union._znode_op = type { i32 }
%struct._zend_array = type { %struct._zend_refcounted_h, %union.anon.0, i32, %union.anon.1, i32, i32, i32, i32, i64, ptr }
%struct._zend_refcounted_h = type { i32, %union.anon }
%union.anon = type { i32 }
%union.anon.0 = type { i32 }
%union.anon.1 = type { ptr }
%struct.zend_get_gc_buffer = type { ptr, ptr, ptr }
%struct._zend_call_stack = type { ptr, i64 }
%struct._spl_SplObjectStorage = type { %struct._zend_array, i64, i32, i64, ptr, %struct._zend_object }
%struct._zend_object = type { %struct._zend_refcounted_h, i32, ptr, ptr, ptr, [1 x %struct._zval_struct] }
%struct._zend_execute_data = type { ptr, ptr, ptr, ptr, %struct._zval_struct, ptr, ptr, ptr, ptr }
%struct._spl_SplObjectStorageElement = type { ptr, %struct._zval_struct }

@.str.1 = private unnamed_addr constant [2 x i8] c"O\00", align 1
@spl_ce_SplObjectStorage = global ptr null, align 8
@executor_globals = external global %struct._zend_executor_globals, align 8

; Function Attrs: nounwind uwtable
define internal void @spl_object_storage_addall(ptr noundef %0, ptr noundef %1) #0 {
  %3 = alloca ptr, align 8
  %4 = alloca ptr, align 8
  %5 = alloca ptr, align 8
  %6 = alloca ptr, align 8
  %7 = alloca ptr, align 8
  %8 = alloca i32, align 4
  %9 = alloca i64, align 8
  %10 = alloca ptr, align 8
  store ptr %0, ptr %4, align 8
  store ptr %1, ptr %5, align 8
  br label %11

11:                                               ; preds = %2
  %12 = load ptr, ptr %5, align 8
  %13 = getelementptr inbounds %struct._spl_SplObjectStorage, ptr %12, i32 0, i32 0
  store ptr %13, ptr %7, align 8
  %14 = load ptr, ptr %7, align 8
  %15 = getelementptr inbounds %struct._zend_array, ptr %14, i32 0, i32 4
  %16 = load i32, ptr %15, align 8
  store i32 %16, ptr %8, align 4
  %17 = load ptr, ptr %7, align 8
  %18 = getelementptr inbounds %struct._zend_array, ptr %17, i32 0, i32 1
  %19 = load i32, ptr %18, align 8
  %20 = xor i32 %19, -1
  %21 = and i32 %20, 4
  %22 = zext i32 %21 to i64
  %23 = mul i64 %22, 4
  %24 = add i64 16, %23
  store i64 %24, ptr %9, align 8
  %25 = load ptr, ptr %7, align 8
  %26 = getelementptr inbounds %struct._zend_array, ptr %25, i32 0, i32 3
  %27 = load ptr, ptr %26, align 8
  store ptr %27, ptr %10, align 8
  br label %28

28:                                               ; preds = %55, %11
  %29 = load i32, ptr %8, align 4
  %30 = icmp ugt i32 %29, 0
  br i1 %30, label %31, label %61

31:                                               ; preds = %28
  %32 = load ptr, ptr %10, align 8
  store ptr %32, ptr %3, align 8
  %33 = load ptr, ptr %3, align 8
  %34 = getelementptr inbounds %struct._zval_struct, ptr %33, i32 0, i32 1
  %35 = load i8, ptr %34, align 8
  %36 = zext i8 %35 to i32
  %37 = icmp eq i32 %36, 0
  %38 = xor i1 %37, true
  %39 = xor i1 %38, true
  %40 = zext i1 %39 to i32
  %41 = sext i32 %40 to i64
  %42 = icmp ne i64 %41, 0
  br i1 %42, label %43, label %44

43:                                               ; preds = %31
  br label %55

44:                                               ; preds = %31
  %45 = load ptr, ptr %10, align 8
  %46 = getelementptr inbounds %struct._zval_struct, ptr %45, i32 0, i32 0
  %47 = load ptr, ptr %46, align 8
  store ptr %47, ptr %6, align 8
  %48 = load ptr, ptr %4, align 8
  %49 = load ptr, ptr %6, align 8
  %50 = getelementptr inbounds %struct._spl_SplObjectStorageElement, ptr %49, i32 0, i32 0
  %51 = load ptr, ptr %50, align 8
  %52 = load ptr, ptr %6, align 8
  %53 = getelementptr inbounds %struct._spl_SplObjectStorageElement, ptr %52, i32 0, i32 1
  %54 = call ptr @spl_object_storage_attach(ptr noundef %48, ptr noundef %51, ptr noundef %53)
  br label %55

55:                                               ; preds = %44, %43
  %56 = load ptr, ptr %10, align 8
  %57 = load i64, ptr %9, align 8
  %58 = getelementptr inbounds i8, ptr %56, i64 %57
  store ptr %58, ptr %10, align 8
  %59 = load i32, ptr %8, align 4
  %60 = add i32 %59, -1
  store i32 %60, ptr %8, align 4
  br label %28

61:                                               ; preds = %28
  br label %62

62:                                               ; preds = %61
  %63 = load ptr, ptr %4, align 8
  %64 = getelementptr inbounds %struct._spl_SplObjectStorage, ptr %63, i32 0, i32 1
  store i64 0, ptr %64, align 8
  ret void
}

; Function Attrs: nounwind uwtable
define internal ptr @spl_object_storage_from_obj(ptr noundef %0) #0 {
  %2 = alloca ptr, align 8
  store ptr %0, ptr %2, align 8
  %3 = load ptr, ptr %2, align 8
  %4 = getelementptr inbounds i8, ptr %3, i64 -88
  ret ptr %4
}

; Function Attrs: nounwind uwtable
define hidden void @zim_SplObjectStorage_addAll(ptr noundef %0, ptr noundef %1) #0 {
  %3 = alloca ptr, align 8
  %4 = alloca ptr, align 8
  %5 = alloca ptr, align 8
  %6 = alloca ptr, align 8
  %7 = alloca ptr, align 8
  %8 = alloca ptr, align 8
  %9 = alloca ptr, align 8
  store ptr %0, ptr %4, align 8
  store ptr %1, ptr %5, align 8
  %10 = load ptr, ptr %4, align 8
  %11 = getelementptr inbounds %struct._zend_execute_data, ptr %10, i32 0, i32 4
  %12 = getelementptr inbounds %struct._zval_struct, ptr %11, i32 0, i32 0
  %13 = load ptr, ptr %12, align 8
  %14 = call ptr @spl_object_storage_from_obj(ptr noundef %13)
  store ptr %14, ptr %7, align 8
  %15 = load ptr, ptr %4, align 8
  %16 = getelementptr inbounds %struct._zend_execute_data, ptr %15, i32 0, i32 4
  %17 = getelementptr inbounds %struct._zval_struct, ptr %16, i32 0, i32 2
  %18 = load i32, ptr %17, align 4
  %19 = load ptr, ptr @spl_ce_SplObjectStorage, align 8
  %20 = call i32 (i32, ptr, ...) @zend_parse_parameters(i32 noundef %18, ptr noundef @.str.1, ptr noundef %6, ptr noundef %19)
  %21 = icmp eq i32 %20, -1
  br i1 %21, label %22, label %27

22:                                               ; preds = %2
  br label %23

23:                                               ; preds = %22
  %24 = load ptr, ptr getelementptr inbounds (%struct._zend_executor_globals, ptr @executor_globals, i32 0, i32 50), align 8
  %25 = icmp ne ptr %24, null
  call void @llvm.assume(i1 %25)
  br label %48

26:                                               ; No predecessors!
  br label %27

27:                                               ; preds = %26, %2
  %28 = load ptr, ptr %6, align 8
  %29 = getelementptr inbounds %struct._zval_struct, ptr %28, i32 0, i32 0
  %30 = load ptr, ptr %29, align 8
  %31 = call ptr @spl_object_storage_from_obj(ptr noundef %30)
  store ptr %31, ptr %8, align 8
  %32 = load ptr, ptr %7, align 8
  %33 = load ptr, ptr %8, align 8
  call void @spl_object_storage_addall(ptr noundef %32, ptr noundef %33)
  br label %34

34:                                               ; preds = %27
  br label %35

35:                                               ; preds = %34
  %36 = load ptr, ptr %5, align 8
  store ptr %36, ptr %9, align 8
  %37 = load ptr, ptr %7, align 8
  %38 = getelementptr inbounds %struct._spl_SplObjectStorage, ptr %37, i32 0, i32 0
  store ptr %38, ptr %3, align 8
  %39 = load ptr, ptr %3, align 8
  %40 = getelementptr inbounds %struct._zend_array, ptr %39, i32 0, i32 5
  %41 = load i32, ptr %40, align 4
  %42 = zext i32 %41 to i64
  %43 = load ptr, ptr %9, align 8
  %44 = getelementptr inbounds %struct._zval_struct, ptr %43, i32 0, i32 0
  store i64 %42, ptr %44, align 8
  %45 = load ptr, ptr %9, align 8
  %46 = getelementptr inbounds %struct._zval_struct, ptr %45, i32 0, i32 1
  store i32 4, ptr %46, align 8
  br label %47

47:                                               ; preds = %35
  br label %48

48:                                               ; preds = %47, %23
  ret void
}