; Function Attrs: nounwind uwtable
define hidden void @zim_SplObjectStorage_addAll(ptr nocapture noundef readonly %0, ptr nocapture noundef writeonly %1) #0 {
  %3 = alloca ptr, align 8
  %4 = getelementptr inbounds i8, ptr %0, i64 32
  %5 = load ptr, ptr %4, align 8
  %6 = getelementptr inbounds i8, ptr %5, i64 -88
  %7 = getelementptr inbounds i8, ptr %0, i64 44
  %8 = load i32, ptr %7, align 4
  %9 = load ptr, ptr @spl_ce_SplObjectStorage, align 8
  %10 = call i32 (i32, ptr, ...) @zend_parse_parameters(i32 noundef %8, ptr noundef nonnull @.str.1, ptr noundef nonnull %3, ptr noundef %9) #10
  %11 = icmp eq i32 %10, -1
  br i1 %11, label %12, label %15

12:                                               ; preds = %2
  %13 = load ptr, ptr getelementptr inbounds (%struct._zend_executor_globals, ptr @executor_globals, i64 0, i32 50), align 8
  %14 = icmp ne ptr %13, null
  call void @llvm.assume(i1 %14)
  br label %44

15:                                               ; preds = %2
  %16 = load ptr, ptr %3, align 8
  %17 = load ptr, ptr %16, align 8
  %18 = getelementptr inbounds i8, ptr %17, i64 -64
  %19 = load i32, ptr %18, align 8
  %20 = getelementptr inbounds i8, ptr %17, i64 -80
  %21 = load i32, ptr %20, align 8
  %22 = shl i32 %21, 2
  %23 = and i32 %22, 16
  %24 = xor i32 %23, 16
  %narrow.i = add nuw nsw i32 %24, 16
  %25 = zext nneg i32 %narrow.i to i64
  %.not15.i = icmp eq i32 %19, 0
  br i1 %.not15.i, label %spl_object_storage_addall.exit, label %.lr.ph.preheader.i

.lr.ph.preheader.i:                               ; preds = %15
  %26 = getelementptr inbounds i8, ptr %17, i64 -72
  %27 = load ptr, ptr %26, align 8
  br label %.lr.ph.i

.lr.ph.i:                                         ; preds = %36, %.lr.ph.preheader.i
  %.017.i = phi ptr [ %37, %36 ], [ %27, %.lr.ph.preheader.i ]
  %.01416.i = phi i32 [ %38, %36 ], [ %19, %.lr.ph.preheader.i ]
  %28 = getelementptr inbounds i8, ptr %.017.i, i64 8
  %29 = load i8, ptr %28, align 8
  %30 = icmp eq i8 %29, 0
  br i1 %30, label %36, label %31

31:                                               ; preds = %.lr.ph.i
  %32 = load ptr, ptr %.017.i, align 8
  %33 = load ptr, ptr %32, align 8
  %34 = getelementptr inbounds i8, ptr %32, i64 8
  %35 = call fastcc ptr @spl_object_storage_attach(ptr noundef nonnull %6, ptr noundef %33, ptr noundef nonnull %34)
  br label %36

36:                                               ; preds = %31, %.lr.ph.i
  %37 = getelementptr inbounds i8, ptr %.017.i, i64 %25
  %38 = add i32 %.01416.i, -1
  %.not.i = icmp eq i32 %38, 0
  br i1 %.not.i, label %spl_object_storage_addall.exit, label %.lr.ph.i

spl_object_storage_addall.exit:                   ; preds = %36, %15
  %39 = getelementptr inbounds i8, ptr %5, i64 -32
  store i64 0, ptr %39, align 8
  %40 = getelementptr inbounds i8, ptr %5, i64 -60
  %41 = load i32, ptr %40, align 4
  %42 = zext i32 %41 to i64
  store i64 %42, ptr %1, align 8
  %43 = getelementptr inbounds i8, ptr %1, i64 8
  store i32 4, ptr %43, align 8
  br label %44

44:                                               ; preds = %spl_object_storage_addall.exit, %12
  ret void
}